(dp1
S'pledgeID'
p2
(dp3
S'length'
p4
I512
sS'unique'
p5
I00
sS'sortable'
p6
I2
sS'sql'
p7
S'INTEGER REFERENCES Pledges (id) ON DELETE CASCADE'
p8
sS'notnull'
p9
I01
sS'type'
p10
S'reference Pledges'
p11
ssS'id'
p12
(dp13
g4
I512
sg5
I00
sg6
I1
sg7
S'INTEGER PRIMARY KEY AUTOINCREMENT'
p14
sg9
I00
sg10
g12
ssS'rewardID'
p15
(dp16
g4
I512
sg5
I00
sg6
I3
sg7
S'INTEGER REFERENCES Rewards (id) ON DELETE CASCADE'
p17
sg9
I01
sg10
S'reference Rewards'
p18
ss.