(dp1
S'pledgeID'
p2
(dp3
S'length'
p4
I512
sS'unique'
p5
I00
sS'sortable'
p6
I1
sS'sql'
p7
S'INTEGER REFERENCES Pledges (id) ON DELETE CASCADE'
p8
sS'notnull'
p9
I01
sS'type'
p10
S'reference Pledges'
p11
ssS'rewardID'
p12
(dp13
g4
I512
sg5
I00
sg6
I2
sg7
S'INTEGER REFERENCES Rewards (id) ON DELETE CASCADE'
p14
sg9
I01
sg10
S'reference Rewards'
p15
ss.